(iengine
Engine
p0
(dp1
S'argParser'
p2
(iargParser
ArgParser
p3
(dp4
S'logger'
p5
(ilogger
Logger
p6
(dp7
S'outputPath'
p8
S'msaprobs/asr.PROTGAMMAWAG/lazarus_job_status.log'
p9
sS'verbosityLevel'
p10
I1
sbsS'args'
p11
(lp12
S'/Users/victor/Documents/SourceCode/Lazarus/lazarus.py'
p13
aS'--alignment'
p14
aS'msaprobs/ime2.msaprobs.fasta'
p15
aS'--tree'
p16
aS'msaprobs/RAxML_bestTree.msaprobs.PROTGAMMAWAG'
p17
aS'--model'
p18
aS'/Users/victor/Applications/paml44/dat//wag.dat'
p19
aS'--outputdir'
p20
aS'msaprobs/asr.PROTGAMMAWAG'
p21
aS'--branch_lengths'
p22
aS'fixed'
p23
aS'--asrv'
p24
aS'8'
p25
aS'--codeml'
p26
aS'--gapcorrect'
p27
aS'True'
p28
aS'--outgroup'
p29
aS'[Yarrowia.lipolytica.IME2]'
p30
aS'--cleanup'
p31
aS'True'
p32
asbsg5
(ilogger
Logger
p33
(dp34
g8
S'msaprobs/asr.PROTGAMMAWAG/lazarus_job_status.log'
p35
sg10
I1
sbsS'data'
p36
(idataWharehouse
DataWharehouse
p37
(dp38
g2
g3
sS'trees'
p39
(dp40
I1
(itree
Tree
p41
(dp42
S'temporary_tree_object'
p43
NsS'newickString'
p44
S'(Kluyveromyces.lactis.IME2: 0.753733, (Saccharomyces.cerevisiae.IME2: 0.416502, (Yarrowia.lipolytica.IME2: 1.527888, (Candida.lusitaniae.IME2: 1.029965, (Candida.parapsilosis.IME2: 0.444933, Candida.albicans.IME2: 0.375518): 0.326175): 0.294626): 0.337818): 0.143294, Kluyveromyces.waltii.IME2: 0.512795);'
p45
sS'postprob'
p46
F1.0
sS'lnL'
p47
F-9499.165453
sS'treeviewString'
p48
S'(Yarrowia.lipolytica.IME2:0.000000,((Candida.lusitaniae.IME2:0.000000,(Candida.parapsilosis.IME2:0.000000,Candida.albicans.IME2:0.000000)12:0.000000)11:0.000000,(Saccharomyces.cerevisiae.IME2:0.000000,(Kluyveromyces.lactis.IME2:0.000000,Kluyveromyces.waltii.IME2:0.000000)8:0.000000)9:0.000000)10:0.000000)6;'
p49
sS'treeNumber'
p50
I1
sS'exclude'
p51
I00
sS'nodes'
p52
(dp53
sS'root'
p54
ccopy_reg
_reconstructor
p55
(ccogent.core.tree
PhyloNode
p56
c__builtin__
object
p57
Ntp58
Rp59
(dp60
S'_parent'
p61
NsS'params'
p62
(dp63
S'length'
p64
NssS'NameLoaded'
p65
I00
sS'Name'
p66
g54
sS'Children'
p67
(lp68
g55
(g56
g57
Ntp69
Rp70
(dp71
g61
g59
sg62
(dp72
g64
F0.753733
ssg65
I01
sg66
S'Kluyveromyces.lactis.IME2'
p73
sg67
(lp74
sbag55
(g56
g57
Ntp75
Rp76
(dp77
g61
g59
sg62
(dp78
g64
F0.143294
ssg65
I00
sg66
S'edge.3'
p79
sg67
(lp80
g55
(g56
g57
Ntp81
Rp82
(dp83
g61
g76
sg62
(dp84
g64
F0.416502
ssg65
I01
sg66
S'Saccharomyces.cerevisiae.IME2'
p85
sg67
(lp86
sbag55
(g56
g57
Ntp87
Rp88
(dp89
g61
g76
sg62
(dp90
g64
F0.337818
ssg65
I00
sg66
S'edge.2'
p91
sg67
(lp92
g55
(g56
g57
Ntp93
Rp94
(dp95
g61
g88
sg62
(dp96
g64
F1.527888
ssg65
I01
sg66
S'Yarrowia.lipolytica.IME2'
p97
sg67
(lp98
sbag55
(g56
g57
Ntp99
Rp100
(dp101
g61
g88
sg62
(dp102
g64
F0.294626
ssg65
I00
sg66
S'edge.1'
p103
sg67
(lp104
g55
(g56
g57
Ntp105
Rp106
(dp107
g61
g100
sg62
(dp108
g64
F1.029965
ssg65
I01
sg66
S'Candida.lusitaniae.IME2'
p109
sg67
(lp110
sbag55
(g56
g57
Ntp111
Rp112
(dp113
g61
g100
sg62
(dp114
g64
F0.326175
ssg65
I00
sg66
S'edge.0'
p115
sg67
(lp116
g55
(g56
g57
Ntp117
Rp118
(dp119
g61
g112
sg62
(dp120
g64
F0.444933
ssg65
I01
sg66
S'Candida.parapsilosis.IME2'
p121
sg67
(lp122
sbag55
(g56
g57
Ntp123
Rp124
(dp125
g61
g112
sg62
(dp126
g64
F0.375518
ssg65
I01
sg66
S'Candida.albicans.IME2'
p127
sg67
(lp128
sbasbasbasbasbag55
(g56
g57
Ntp129
Rp130
(dp131
g61
g59
sg62
(dp132
g64
F0.512795
ssg65
I01
sg66
S'Kluyveromyces.waltii.IME2'
p133
sg67
(lp134
sbasbsS'temporary_states'
p135
(dp136
sbssbsS'pamljobs'
p137
(dp138
I1
(ipamlJob
CodemlJob
p139
(dp140
S'ncat_gamma'
p141
F8.0
sS'cleandata'
p142
I0
sS'estimate_branch_lengths'
p143
I00
sS'treePath'
p144
S'msaprobs/asr.PROTGAMMAWAG/tree1/pamlWorkspace/reformatted_tree.tre'
p145
sS'alpha'
p146
F0.0
sS'modelPath'
p147
S'msaprobs/asr.PROTGAMMAWAG/tree1/pamlWorkspace/model.dat'
p148
sS'fix_asrv'
p149
I00
sS'outputDirectory'
p150
S'msaprobs/asr.PROTGAMMAWAG/tree1/pamlWorkspace'
p151
sg50
I1
sS'controlPath'
p152
S'msaprobs/asr.PROTGAMMAWAG/tree1/pamlWorkspace/codeml.ctl'
p153
sS'alignmentPath'
p154
S'msaprobs/asr.PROTGAMMAWAG/tree1/pamlWorkspace/reformatted_alignment.phy'
p155
sS'among_site_rate_variation'
p156
I01
sS'executionDirectory'
p157
g151
sbssb.